; Function Attrs: null_pointer_is_valid sspstrong uwtable
define internal i32 @dissect_wtp_fromudp(ptr noundef %0, ptr noundef %1, ptr noundef %2, ptr readnone captures(none) %3) #0 {
  %5 = getelementptr inbounds nuw i8, ptr %1, i64 8
  %6 = load ptr, ptr %5, align 8
  tail call void @col_set_str(ptr noundef %6, i32 noundef 35, ptr noundef nonnull @.str.168)
  %7 = load ptr, ptr %5, align 8
  tail call void @col_clear(ptr noundef %7, i32 noundef 25)
  tail call fastcc void @dissect_wtp_common(ptr noundef %0, ptr noundef %1, ptr noundef %2)
  %8 = tail call i32 @tvb_captured_length(ptr noundef %0)
  ret i32 %8
}